; Function Attrs: nounwind uwtable
define internal fastcc void @arena_reset_prepare_background_thread(ptr noundef %0, i32 noundef %1) unnamed_addr #0 {
  %3 = tail call i32 @pthread_mutex_trylock(ptr noundef nonnull getelementptr inbounds nuw (i8, ptr @je_background_thread_lock, i64 72)) #15
  %.not.i = icmp eq i32 %3, 0
  br i1 %.not.i, label %malloc_mutex_trylock_final.exit.i, label %4

malloc_mutex_trylock_final.exit.i:                ; preds = %2
  store atomic i8 1, ptr getelementptr inbounds nuw (i8, ptr @je_background_thread_lock, i64 64) monotonic, align 8
  br label %5

4:                                                ; preds = %2
  tail call void @je_malloc_mutex_lock_slow(ptr noundef nonnull @je_background_thread_lock) #15
  br label %5

5:                                                ; preds = %4, %malloc_mutex_trylock_final.exit.i
  %6 = load i64, ptr getelementptr inbounds nuw (i8, ptr @je_background_thread_lock, i64 56), align 8, !tbaa !17
  %7 = add i64 %6, 1
  store i64 %7, ptr getelementptr inbounds nuw (i8, ptr @je_background_thread_lock, i64 56), align 8, !tbaa !17
  %8 = load ptr, ptr getelementptr inbounds nuw (i8, ptr @je_background_thread_lock, i64 48), align 8, !tbaa !23
  %.not.i.i = icmp eq ptr %8, %0
  br i1 %.not.i.i, label %malloc_mutex_lock.exit, label %9

9:                                                ; preds = %5
  store ptr %0, ptr getelementptr inbounds nuw (i8, ptr @je_background_thread_lock, i64 48), align 8, !tbaa !23
  %10 = load i64, ptr getelementptr inbounds nuw (i8, ptr @je_background_thread_lock, i64 40), align 8, !tbaa !24
  %11 = add i64 %10, 1
  store i64 %11, ptr getelementptr inbounds nuw (i8, ptr @je_background_thread_lock, i64 40), align 8, !tbaa !24
  br label %malloc_mutex_lock.exit

malloc_mutex_lock.exit:                           ; preds = %5, %9
  %12 = load atomic i8, ptr @je_background_thread_enabled_state monotonic, align 1
  %13 = trunc i8 %12 to i1
  br i1 %13, label %14, label %38

14:                                               ; preds = %malloc_mutex_lock.exit
  %15 = zext i32 %1 to i64
  %16 = load ptr, ptr @je_background_thread_info, align 8, !tbaa !215
  %17 = load i64, ptr @je_max_background_threads, align 8, !tbaa !4
  %18 = urem i64 %15, %17
  %19 = getelementptr inbounds nuw %struct.background_thread_info_s, ptr %16, i64 %18
  %20 = getelementptr inbounds nuw i8, ptr %19, i64 128
  %21 = tail call i32 @pthread_mutex_trylock(ptr noundef nonnull %20) #15
  %.not.i6 = icmp eq i32 %21, 0
  br i1 %.not.i6, label %malloc_mutex_trylock_final.exit.i8, label %23

malloc_mutex_trylock_final.exit.i8:               ; preds = %14
  %22 = getelementptr inbounds nuw i8, ptr %19, i64 120
  store atomic i8 1, ptr %22 monotonic, align 1
  br label %25

23:                                               ; preds = %14
  %24 = getelementptr inbounds nuw i8, ptr %19, i64 56
  tail call void @je_malloc_mutex_lock_slow(ptr noundef nonnull %24) #15
  br label %25

25:                                               ; preds = %23, %malloc_mutex_trylock_final.exit.i8
  %26 = getelementptr inbounds nuw i8, ptr %19, i64 112
  %27 = load i64, ptr %26, align 8, !tbaa !17
  %28 = add i64 %27, 1
  store i64 %28, ptr %26, align 8, !tbaa !17
  %29 = getelementptr inbounds nuw i8, ptr %19, i64 104
  %30 = load ptr, ptr %29, align 8, !tbaa !23
  %.not.i.i7 = icmp eq ptr %30, %0
  br i1 %.not.i.i7, label %malloc_mutex_lock.exit9, label %31

31:                                               ; preds = %25
  store ptr %0, ptr %29, align 8, !tbaa !23
  %32 = getelementptr inbounds nuw i8, ptr %19, i64 96
  %33 = load i64, ptr %32, align 8, !tbaa !24
  %34 = add i64 %33, 1
  store i64 %34, ptr %32, align 8, !tbaa !24
  br label %malloc_mutex_lock.exit9

malloc_mutex_lock.exit9:                          ; preds = %25, %31
  %35 = getelementptr inbounds nuw i8, ptr %19, i64 168
  store i32 2, ptr %35, align 8, !tbaa !217
  %36 = getelementptr inbounds nuw i8, ptr %19, i64 120
  store atomic i8 0, ptr %36 monotonic, align 1
  %37 = tail call i32 @pthread_mutex_unlock(ptr noundef nonnull %20) #15
  br label %38

38:                                               ; preds = %malloc_mutex_lock.exit9, %malloc_mutex_lock.exit
  ret void
}